; Function Attrs: uwtable
define internal void @"_ZThn8_N9grpc_core14promise_detail15PromiseActivityINS0_4LoopIZNS_23LegacyChannelIdleFilter14StartIdleTimerEvE3$_0EENS_22ExecCtxWakeupSchedulerEZNS3_14StartIdleTimerEvE3$_1JPN17grpc_event_engine12experimental11EventEngineEEE4DropEt"(ptr noundef %this, i16 zeroext %0) unnamed_addr #16 align 2 {
entry:
  %refs_.i.i.i = getelementptr inbounds i8, ptr %this, i64 16
  %1 = atomicrmw sub ptr %refs_.i.i.i, i32 1 acq_rel, align 4
  %cmp.not.i.i.i = icmp eq i32 %1, 1
  br i1 %cmp.not.i.i.i, label %delete.notnull.i.i.i, label %"_ZN9grpc_core14promise_detail15PromiseActivityINS0_4LoopIZNS_23LegacyChannelIdleFilter14StartIdleTimerEvE3$_0EENS_22ExecCtxWakeupSchedulerEZNS3_14StartIdleTimerEvE3$_1JPN17grpc_event_engine12experimental11EventEngineEEE4DropEt.exit"

delete.notnull.i.i.i:                             ; preds = %entry
  %2 = getelementptr inbounds i8, ptr %this, i64 -8
  %vtable.i.i.i = load ptr, ptr %2, align 8
  %vfn.i.i.i = getelementptr inbounds i8, ptr %vtable.i.i.i, i64 16
  %3 = load ptr, ptr %vfn.i.i.i, align 8
  tail call void %3(ptr noundef nonnull align 8 dereferenceable(40) %2) #24
  br label %"_ZN9grpc_core14promise_detail15PromiseActivityINS0_4LoopIZNS_23LegacyChannelIdleFilter14StartIdleTimerEvE3$_0EENS_22ExecCtxWakeupSchedulerEZNS3_14StartIdleTimerEvE3$_1JPN17grpc_event_engine12experimental11EventEngineEEE4DropEt.exit"

"_ZN9grpc_core14promise_detail15PromiseActivityINS0_4LoopIZNS_23LegacyChannelIdleFilter14StartIdleTimerEvE3$_0EENS_22ExecCtxWakeupSchedulerEZNS3_14StartIdleTimerEvE3$_1JPN17grpc_event_engine12experimental11EventEngineEEE4DropEt.exit": ; preds = %entry, %delete.notnull.i.i.i
  ret void
}